target datalayout = "e-m:e-p270:32:32-p271:32:32-p272:64:64-i64:64-i128:128-f80:128-n8:16:32:64-S128"
target triple = "x86_64-pc-linux-gnu"

%struct.pointf_s = type { double, double }

; Function Attrs: nounwind uwtable
define internal { double, double } @arrow_type_crow(ptr noundef %0, double %1, double %2, double %3, double %4, double noundef %5, double noundef %6, i32 noundef %7) #0 {
  %9 = alloca %struct.pointf_s, align 8
  %10 = alloca %struct.pointf_s, align 8
  %11 = alloca %struct.pointf_s, align 8
  %12 = alloca ptr, align 8
  %13 = alloca double, align 8
  %14 = alloca double, align 8
  %15 = alloca i32, align 4
  %16 = alloca [9 x %struct.pointf_s], align 16
  %17 = getelementptr inbounds nuw { double, double }, ptr %10, i32 0, i32 0
  store double %1, ptr %17, align 8
  %18 = getelementptr inbounds nuw { double, double }, ptr %10, i32 0, i32 1
  store double %2, ptr %18, align 8
  %19 = getelementptr inbounds nuw { double, double }, ptr %11, i32 0, i32 0
  store double %3, ptr %19, align 8
  %20 = getelementptr inbounds nuw { double, double }, ptr %11, i32 0, i32 1
  store double %4, ptr %20, align 8
  store ptr %0, ptr %12, align 8, !tbaa !73
  store double %5, ptr %13, align 8, !tbaa !53
  store double %6, ptr %14, align 8, !tbaa !53
  store i32 %7, ptr %15, align 4, !tbaa !10
  call void @llvm.lifetime.start.p0(i64 144, ptr %16) #9
  %21 = load double, ptr %13, align 8, !tbaa !53
  %22 = load double, ptr %14, align 8, !tbaa !53
  %23 = load i32, ptr %15, align 4, !tbaa !10
  %24 = getelementptr inbounds [9 x %struct.pointf_s], ptr %16, i64 0, i64 0
  %25 = getelementptr inbounds nuw { double, double }, ptr %10, i32 0, i32 0
  %26 = load double, ptr %25, align 8
  %27 = getelementptr inbounds nuw { double, double }, ptr %10, i32 0, i32 1
  %28 = load double, ptr %27, align 8
  %29 = getelementptr inbounds nuw { double, double }, ptr %11, i32 0, i32 0
  %30 = load double, ptr %29, align 8
  %31 = getelementptr inbounds nuw { double, double }, ptr %11, i32 0, i32 1
  %32 = load double, ptr %31, align 8
  %33 = call { double, double } @arrow_type_crow0(double %26, double %28, double %30, double %32, double noundef %21, double noundef %22, i32 noundef %23, ptr noundef %24)
  %34 = getelementptr inbounds nuw { double, double }, ptr %9, i32 0, i32 0
  %35 = extractvalue { double, double } %33, 0
  store double %35, ptr %34, align 8
  %36 = getelementptr inbounds nuw { double, double }, ptr %9, i32 0, i32 1
  %37 = extractvalue { double, double } %33, 1
  store double %37, ptr %36, align 8
  %38 = load i32, ptr %15, align 4, !tbaa !10
  %39 = and i32 %38, 64
  %40 = icmp ne i32 %39, 0
  br i1 %40, label %41, label %44

41:                                               ; preds = %8
  %42 = load ptr, ptr %12, align 8, !tbaa !73
  %43 = getelementptr inbounds [9 x %struct.pointf_s], ptr %16, i64 0, i64 0
  call void @gvrender_polygon(ptr noundef %42, ptr noundef %43, i64 noundef 5, i32 noundef 1)
  br label %55

44:                                               ; preds = %8
  %45 = load i32, ptr %15, align 4, !tbaa !10
  %46 = and i32 %45, 128
  %47 = icmp ne i32 %46, 0
  br i1 %47, label %48, label %51

48:                                               ; preds = %44
  %49 = load ptr, ptr %12, align 8, !tbaa !73
  %50 = getelementptr inbounds [9 x %struct.pointf_s], ptr %16, i64 0, i64 4
  call void @gvrender_polygon(ptr noundef %49, ptr noundef %50, i64 noundef 5, i32 noundef 1)
  br label %54

51:                                               ; preds = %44
  %52 = load ptr, ptr %12, align 8, !tbaa !73
  %53 = getelementptr inbounds [9 x %struct.pointf_s], ptr %16, i64 0, i64 0
  call void @gvrender_polygon(ptr noundef %52, ptr noundef %53, i64 noundef 8, i32 noundef 1)
  br label %54

54:                                               ; preds = %51, %48
  br label %55

55:                                               ; preds = %54, %41
  call void @llvm.lifetime.end.p0(i64 144, ptr %16) #9
  %56 = load { double, double }, ptr %9, align 8
  ret { double, double } %56
}