; Function Attrs: nounwind uwtable
define internal { double, double } @arrow_type_crow(ptr noundef %0, double %1, double %2, double %3, double %4, double noundef %5, double noundef %6, i32 noundef %7) #0 {
  %9 = alloca [9 x %struct.pointf_s], align 16
  call void @llvm.lifetime.start.p0(i64 144, ptr nonnull %9) #12
  %10 = call fastcc { double, double } @arrow_type_crow0(double %1, double %2, double %3, double %4, double noundef %5, double noundef %6, i32 noundef %7, ptr noundef %9)
  %11 = and i32 %7, 64
  %.not = icmp eq i32 %11, 0
  br i1 %.not, label %13, label %12

12:                                               ; preds = %8
  call void @gvrender_polygon(ptr noundef %0, ptr noundef nonnull %9, i64 noundef 5, i32 noundef 1) #12
  br label %18

13:                                               ; preds = %8
  %14 = and i32 %7, 128
  %.not11 = icmp eq i32 %14, 0
  br i1 %.not11, label %17, label %15

15:                                               ; preds = %13
  %16 = getelementptr inbounds nuw i8, ptr %9, i64 64
  call void @gvrender_polygon(ptr noundef %0, ptr noundef nonnull %16, i64 noundef 5, i32 noundef 1) #12
  br label %18

17:                                               ; preds = %13
  call void @gvrender_polygon(ptr noundef %0, ptr noundef nonnull %9, i64 noundef 8, i32 noundef 1) #12
  br label %18

18:                                               ; preds = %15, %17, %12
  call void @llvm.lifetime.end.p0(i64 144, ptr nonnull %9) #12
  ret { double, double } %10
}